target datalayout = "e-m:e-p270:32:32-p271:32:32-p272:64:64-i64:64-i128:128-f80:128-n8:16:32:64-S128"
target triple = "x86_64-pc-linux-gnu"

@hf_afs_prot_name = internal global i32 0, align 4
@hf_afs_prot_name_uint_string = internal global i32 0, align 4
@hf_afs_prot_id = internal global i32 0, align 4
@hf_afs_prot_oldid = internal global i32 0, align 4
@hf_afs_prot_newid = internal global i32 0, align 4
@hf_afs_prot_gid = internal global i32 0, align 4
@hf_afs_prot_uid = internal global i32 0, align 4
@hf_afs_prot_count = internal global i32 0, align 4
@hf_afs_prot_pos = internal global i32 0, align 4
@hf_afs_prot_flag = internal global i32 0, align 4

; Function Attrs: null_pointer_is_valid sspstrong uwtable
define internal void @OUT_RXString(ptr noundef %0, i32 noundef %1) #0 {
  %3 = alloca ptr, align 8
  %4 = alloca i32, align 4
  %5 = alloca i32, align 4
  %6 = alloca i32, align 4
  store ptr %0, ptr %3, align 8
  store i32 %1, ptr %4, align 4
  call void @llvm.lifetime.start.p0(i64 4, ptr %5) #9
  %7 = load ptr, ptr %3, align 8
  %8 = call i32 @ptvcursor_current_offset(ptr noundef %7)
  store i32 %8, ptr %5, align 4
  call void @llvm.lifetime.start.p0(i64 4, ptr %6) #9
  %9 = load ptr, ptr %3, align 8
  %10 = load i32, ptr %4, align 4
  %11 = call ptr @ptvcursor_add(ptr noundef %9, i32 noundef %10, i32 noundef 4, i32 noundef 0)
  %12 = load ptr, ptr %3, align 8
  %13 = call i32 @ptvcursor_current_offset(ptr noundef %12)
  store i32 %13, ptr %6, align 4
  %14 = load i32, ptr %6, align 4
  %15 = load i32, ptr %5, align 4
  %16 = sub i32 %14, %15
  %17 = and i32 %16, 3
  %18 = icmp ne i32 %17, 0
  br i1 %18, label %19, label %26

19:                                               ; preds = %2
  %20 = load ptr, ptr %3, align 8
  %21 = load i32, ptr %6, align 4
  %22 = load i32, ptr %5, align 4
  %23 = sub i32 %21, %22
  %24 = and i32 %23, 3
  %25 = sub i32 4, %24
  call void @ptvcursor_advance(ptr noundef %20, i32 noundef %25)
  br label %26

26:                                               ; preds = %19, %2
  call void @llvm.lifetime.end.p0(i64 4, ptr %6) #9
  call void @llvm.lifetime.end.p0(i64 4, ptr %5) #9
  ret void
}

; Function Attrs: null_pointer_is_valid sspstrong uwtable
define internal void @dissect_prot_request(ptr noundef %0, ptr noundef %1, i32 noundef %2) #0 {
  %4 = alloca ptr, align 8
  %5 = alloca ptr, align 8
  %6 = alloca i32, align 4
  %7 = alloca i32, align 4
  %8 = alloca i32, align 4
  %9 = alloca i32, align 4
  %10 = alloca i32, align 4
  store ptr %0, ptr %4, align 8
  store ptr %1, ptr %5, align 8
  store i32 %2, ptr %6, align 4
  %11 = load ptr, ptr %4, align 8
  call void @ptvcursor_advance(ptr noundef %11, i32 noundef 4)
  %12 = load i32, ptr %6, align 4
  switch i32 %12, label %112 [
    i32 500, label %13
    i32 501, label %22
    i32 506, label %22
    i32 508, label %22
    i32 512, label %22
    i32 514, label %22
    i32 517, label %22
    i32 519, label %22
    i32 502, label %26
    i32 503, label %30
    i32 507, label %30
    i32 515, label %30
    i32 504, label %37
    i32 505, label %57
    i32 509, label %78
    i32 511, label %87
    i32 513, label %94
    i32 520, label %106
  ]

13:                                               ; preds = %3
  %14 = load ptr, ptr %4, align 8
  %15 = load i32, ptr @hf_afs_prot_name_uint_string, align 4
  call void @OUT_RXString(ptr noundef %14, i32 noundef %15)
  %16 = load ptr, ptr %4, align 8
  %17 = load i32, ptr @hf_afs_prot_id, align 4
  %18 = call ptr @ptvcursor_add(ptr noundef %16, i32 noundef %17, i32 noundef 4, i32 noundef 0)
  %19 = load ptr, ptr %4, align 8
  %20 = load i32, ptr @hf_afs_prot_oldid, align 4
  %21 = call ptr @ptvcursor_add(ptr noundef %19, i32 noundef %20, i32 noundef 4, i32 noundef 0)
  br label %112

22:                                               ; preds = %3, %3, %3, %3, %3, %3, %3
  %23 = load ptr, ptr %4, align 8
  %24 = load i32, ptr @hf_afs_prot_id, align 4
  %25 = call ptr @ptvcursor_add(ptr noundef %23, i32 noundef %24, i32 noundef 4, i32 noundef 0)
  br label %112

26:                                               ; preds = %3
  %27 = load ptr, ptr %4, align 8
  %28 = load i32, ptr @hf_afs_prot_pos, align 4
  %29 = call ptr @ptvcursor_add(ptr noundef %27, i32 noundef %28, i32 noundef 4, i32 noundef 0)
  br label %112

30:                                               ; preds = %3, %3, %3
  %31 = load ptr, ptr %4, align 8
  %32 = load i32, ptr @hf_afs_prot_uid, align 4
  %33 = call ptr @ptvcursor_add(ptr noundef %31, i32 noundef %32, i32 noundef 4, i32 noundef 0)
  %34 = load ptr, ptr %4, align 8
  %35 = load i32, ptr @hf_afs_prot_gid, align 4
  %36 = call ptr @ptvcursor_add(ptr noundef %34, i32 noundef %35, i32 noundef 4, i32 noundef 0)
  br label %112

37:                                               ; preds = %3
  call void @llvm.lifetime.start.p0(i64 4, ptr %7) #9
  call void @llvm.lifetime.start.p0(i64 4, ptr %8) #9
  %38 = load ptr, ptr %4, align 8
  %39 = call ptr @ptvcursor_tvbuff(ptr noundef %38)
  %40 = load ptr, ptr %4, align 8
  %41 = call i32 @ptvcursor_current_offset(ptr noundef %40)
  %42 = call i32 @tvb_get_ntohl(ptr noundef %39, i32 noundef %41)
  store i32 %42, ptr %8, align 4
  %43 = load ptr, ptr %4, align 8
  %44 = load i32, ptr @hf_afs_prot_count, align 4
  %45 = call ptr @ptvcursor_add(ptr noundef %43, i32 noundef %44, i32 noundef 4, i32 noundef 0)
  store i32 0, ptr %7, align 4
  br label %46

46:                                               ; preds = %53, %37
  %47 = load i32, ptr %7, align 4
  %48 = load i32, ptr %8, align 4
  %49 = icmp ult i32 %47, %48
  br i1 %49, label %50, label %56

50:                                               ; preds = %46
  %51 = load ptr, ptr %4, align 8
  %52 = load i32, ptr @hf_afs_prot_name, align 4
  call void @OUT_RXStringV(ptr noundef %51, i32 noundef %52, i32 noundef 64)
  br label %53

53:                                               ; preds = %50
  %54 = load i32, ptr %7, align 4
  %55 = add i32 %54, 1
  store i32 %55, ptr %7, align 4
  br label %46, !llvm.loop !22

56:                                               ; preds = %46
  call void @llvm.lifetime.end.p0(i64 4, ptr %8) #9
  call void @llvm.lifetime.end.p0(i64 4, ptr %7) #9
  br label %112

57:                                               ; preds = %3
  call void @llvm.lifetime.start.p0(i64 4, ptr %9) #9
  call void @llvm.lifetime.start.p0(i64 4, ptr %10) #9
  %58 = load ptr, ptr %4, align 8
  %59 = call ptr @ptvcursor_tvbuff(ptr noundef %58)
  %60 = load ptr, ptr %4, align 8
  %61 = call i32 @ptvcursor_current_offset(ptr noundef %60)
  %62 = call i32 @tvb_get_ntohl(ptr noundef %59, i32 noundef %61)
  store i32 %62, ptr %10, align 4
  %63 = load ptr, ptr %4, align 8
  %64 = load i32, ptr @hf_afs_prot_count, align 4
  %65 = call ptr @ptvcursor_add(ptr noundef %63, i32 noundef %64, i32 noundef 4, i32 noundef 0)
  store i32 0, ptr %9, align 4
  br label %66

66:                                               ; preds = %74, %57
  %67 = load i32, ptr %9, align 4
  %68 = load i32, ptr %10, align 4
  %69 = icmp ult i32 %67, %68
  br i1 %69, label %70, label %77

70:                                               ; preds = %66
  %71 = load ptr, ptr %4, align 8
  %72 = load i32, ptr @hf_afs_prot_id, align 4
  %73 = call ptr @ptvcursor_add(ptr noundef %71, i32 noundef %72, i32 noundef 4, i32 noundef 0)
  br label %74

74:                                               ; preds = %70
  %75 = load i32, ptr %9, align 4
  %76 = add i32 %75, 1
  store i32 %76, ptr %9, align 4
  br label %66, !llvm.loop !23

77:                                               ; preds = %66
  call void @llvm.lifetime.end.p0(i64 4, ptr %10) #9
  call void @llvm.lifetime.end.p0(i64 4, ptr %9) #9
  br label %112

78:                                               ; preds = %3
  %79 = load ptr, ptr %4, align 8
  %80 = load i32, ptr @hf_afs_prot_name_uint_string, align 4
  call void @OUT_RXString(ptr noundef %79, i32 noundef %80)
  %81 = load ptr, ptr %4, align 8
  %82 = load i32, ptr @hf_afs_prot_flag, align 4
  %83 = call ptr @ptvcursor_add(ptr noundef %81, i32 noundef %82, i32 noundef 4, i32 noundef 0)
  %84 = load ptr, ptr %4, align 8
  %85 = load i32, ptr @hf_afs_prot_oldid, align 4
  %86 = call ptr @ptvcursor_add(ptr noundef %84, i32 noundef %85, i32 noundef 4, i32 noundef 0)
  br label %112

87:                                               ; preds = %3
  %88 = load ptr, ptr %4, align 8
  %89 = load i32, ptr @hf_afs_prot_id, align 4
  %90 = call ptr @ptvcursor_add(ptr noundef %88, i32 noundef %89, i32 noundef 4, i32 noundef 0)
  %91 = load ptr, ptr %4, align 8
  %92 = load i32, ptr @hf_afs_prot_flag, align 4
  %93 = call ptr @ptvcursor_add(ptr noundef %91, i32 noundef %92, i32 noundef 4, i32 noundef 0)
  br label %112

94:                                               ; preds = %3
  %95 = load ptr, ptr %4, align 8
  %96 = load i32, ptr @hf_afs_prot_id, align 4
  %97 = call ptr @ptvcursor_add(ptr noundef %95, i32 noundef %96, i32 noundef 4, i32 noundef 0)
  %98 = load ptr, ptr %4, align 8
  %99 = load i32, ptr @hf_afs_prot_name_uint_string, align 4
  call void @OUT_RXString(ptr noundef %98, i32 noundef %99)
  %100 = load ptr, ptr %4, align 8
  %101 = load i32, ptr @hf_afs_prot_oldid, align 4
  %102 = call ptr @ptvcursor_add(ptr noundef %100, i32 noundef %101, i32 noundef 4, i32 noundef 0)
  %103 = load ptr, ptr %4, align 8
  %104 = load i32, ptr @hf_afs_prot_newid, align 4
  %105 = call ptr @ptvcursor_add(ptr noundef %103, i32 noundef %104, i32 noundef 4, i32 noundef 0)
  br label %112

106:                                              ; preds = %3
  %107 = load ptr, ptr %4, align 8
  %108 = load i32, ptr @hf_afs_prot_id, align 4
  %109 = call ptr @ptvcursor_add(ptr noundef %107, i32 noundef %108, i32 noundef 4, i32 noundef 0)
  %110 = load ptr, ptr %4, align 8
  %111 = load i32, ptr @hf_afs_prot_name_uint_string, align 4
  call void @OUT_RXString(ptr noundef %110, i32 noundef %111)
  br label %112

112:                                              ; preds = %3, %106, %94, %87, %78, %77, %56, %30, %26, %22, %13
  ret void
}