; Function Attrs: null_pointer_is_valid sspstrong uwtable
define internal void @dissect_prot_request(ptr noundef %0, ptr readnone captures(none) %1, i32 noundef %2) #0 {
  tail call void @ptvcursor_advance(ptr noundef %0, i32 noundef 4)
  switch i32 %2, label %OUT_RXString.exit39 [
    i32 500, label %4
    i32 501, label %17
    i32 506, label %17
    i32 508, label %17
    i32 512, label %17
    i32 514, label %17
    i32 517, label %17
    i32 519, label %17
    i32 502, label %20
    i32 503, label %23
    i32 507, label %23
    i32 515, label %23
    i32 504, label %28
    i32 505, label %36
    i32 509, label %45
    i32 511, label %58
    i32 513, label %63
    i32 520, label %78
  ]

4:                                                ; preds = %3
  %5 = load i32, ptr @hf_afs_prot_name_uint_string, align 4
  %6 = tail call i32 @ptvcursor_current_offset(ptr noundef %0)
  %7 = tail call ptr @ptvcursor_add(ptr noundef %0, i32 noundef %5, i32 noundef 4, i32 noundef 0)
  %8 = tail call i32 @ptvcursor_current_offset(ptr noundef %0)
  %9 = sub i32 %8, %6
  %10 = and i32 %9, 3
  %.not.i = icmp eq i32 %10, 0
  br i1 %.not.i, label %OUT_RXString.exit, label %11

11:                                               ; preds = %4
  %12 = sub nuw nsw i32 4, %10
  tail call void @ptvcursor_advance(ptr noundef %0, i32 noundef %12)
  br label %OUT_RXString.exit

OUT_RXString.exit:                                ; preds = %4, %11
  %13 = load i32, ptr @hf_afs_prot_id, align 4
  %14 = tail call ptr @ptvcursor_add(ptr noundef %0, i32 noundef %13, i32 noundef 4, i32 noundef 0)
  %15 = load i32, ptr @hf_afs_prot_oldid, align 4
  %16 = tail call ptr @ptvcursor_add(ptr noundef %0, i32 noundef %15, i32 noundef 4, i32 noundef 0)
  br label %OUT_RXString.exit39

17:                                               ; preds = %3, %3, %3, %3, %3, %3, %3
  %18 = load i32, ptr @hf_afs_prot_id, align 4
  %19 = tail call ptr @ptvcursor_add(ptr noundef %0, i32 noundef %18, i32 noundef 4, i32 noundef 0)
  br label %OUT_RXString.exit39

20:                                               ; preds = %3
  %21 = load i32, ptr @hf_afs_prot_pos, align 4
  %22 = tail call ptr @ptvcursor_add(ptr noundef %0, i32 noundef %21, i32 noundef 4, i32 noundef 0)
  br label %OUT_RXString.exit39

23:                                               ; preds = %3, %3, %3
  %24 = load i32, ptr @hf_afs_prot_uid, align 4
  %25 = tail call ptr @ptvcursor_add(ptr noundef %0, i32 noundef %24, i32 noundef 4, i32 noundef 0)
  %26 = load i32, ptr @hf_afs_prot_gid, align 4
  %27 = tail call ptr @ptvcursor_add(ptr noundef %0, i32 noundef %26, i32 noundef 4, i32 noundef 0)
  br label %OUT_RXString.exit39

28:                                               ; preds = %3
  %29 = tail call ptr @ptvcursor_tvbuff(ptr noundef %0)
  %30 = tail call i32 @ptvcursor_current_offset(ptr noundef %0)
  %31 = tail call i32 @tvb_get_ntohl(ptr noundef %29, i32 noundef %30)
  %32 = load i32, ptr @hf_afs_prot_count, align 4
  %33 = tail call ptr @ptvcursor_add(ptr noundef %0, i32 noundef %32, i32 noundef 4, i32 noundef 0)
  %.not44 = icmp eq i32 %31, 0
  br i1 %.not44, label %OUT_RXString.exit39, label %.lr.ph43

.lr.ph43:                                         ; preds = %28, %.lr.ph43
  %.042 = phi i32 [ %35, %.lr.ph43 ], [ 0, %28 ]
  %34 = load i32, ptr @hf_afs_prot_name, align 4
  tail call fastcc void @OUT_RXStringV(ptr noundef %0, i32 noundef %34, i32 noundef 64)
  %35 = add nuw i32 %.042, 1
  %exitcond46.not = icmp eq i32 %35, %31
  br i1 %exitcond46.not, label %OUT_RXString.exit39, label %.lr.ph43, !llvm.loop !26

36:                                               ; preds = %3
  %37 = tail call ptr @ptvcursor_tvbuff(ptr noundef %0)
  %38 = tail call i32 @ptvcursor_current_offset(ptr noundef %0)
  %39 = tail call i32 @tvb_get_ntohl(ptr noundef %37, i32 noundef %38)
  %40 = load i32, ptr @hf_afs_prot_count, align 4
  %41 = tail call ptr @ptvcursor_add(ptr noundef %0, i32 noundef %40, i32 noundef 4, i32 noundef 0)
  %.not = icmp eq i32 %39, 0
  br i1 %.not, label %OUT_RXString.exit39, label %.lr.ph

.lr.ph:                                           ; preds = %36, %.lr.ph
  %.03341 = phi i32 [ %44, %.lr.ph ], [ 0, %36 ]
  %42 = load i32, ptr @hf_afs_prot_id, align 4
  %43 = tail call ptr @ptvcursor_add(ptr noundef %0, i32 noundef %42, i32 noundef 4, i32 noundef 0)
  %44 = add nuw i32 %.03341, 1
  %exitcond.not = icmp eq i32 %44, %39
  br i1 %exitcond.not, label %OUT_RXString.exit39, label %.lr.ph, !llvm.loop !27

45:                                               ; preds = %3
  %46 = load i32, ptr @hf_afs_prot_name_uint_string, align 4
  %47 = tail call i32 @ptvcursor_current_offset(ptr noundef %0)
  %48 = tail call ptr @ptvcursor_add(ptr noundef %0, i32 noundef %46, i32 noundef 4, i32 noundef 0)
  %49 = tail call i32 @ptvcursor_current_offset(ptr noundef %0)
  %50 = sub i32 %49, %47
  %51 = and i32 %50, 3
  %.not.i34 = icmp eq i32 %51, 0
  br i1 %.not.i34, label %OUT_RXString.exit35, label %52

52:                                               ; preds = %45
  %53 = sub nuw nsw i32 4, %51
  tail call void @ptvcursor_advance(ptr noundef %0, i32 noundef %53)
  br label %OUT_RXString.exit35

OUT_RXString.exit35:                              ; preds = %45, %52
  %54 = load i32, ptr @hf_afs_prot_flag, align 4
  %55 = tail call ptr @ptvcursor_add(ptr noundef %0, i32 noundef %54, i32 noundef 4, i32 noundef 0)
  %56 = load i32, ptr @hf_afs_prot_oldid, align 4
  %57 = tail call ptr @ptvcursor_add(ptr noundef %0, i32 noundef %56, i32 noundef 4, i32 noundef 0)
  br label %OUT_RXString.exit39

58:                                               ; preds = %3
  %59 = load i32, ptr @hf_afs_prot_id, align 4
  %60 = tail call ptr @ptvcursor_add(ptr noundef %0, i32 noundef %59, i32 noundef 4, i32 noundef 0)
  %61 = load i32, ptr @hf_afs_prot_flag, align 4
  %62 = tail call ptr @ptvcursor_add(ptr noundef %0, i32 noundef %61, i32 noundef 4, i32 noundef 0)
  br label %OUT_RXString.exit39

63:                                               ; preds = %3
  %64 = load i32, ptr @hf_afs_prot_id, align 4
  %65 = tail call ptr @ptvcursor_add(ptr noundef %0, i32 noundef %64, i32 noundef 4, i32 noundef 0)
  %66 = load i32, ptr @hf_afs_prot_name_uint_string, align 4
  %67 = tail call i32 @ptvcursor_current_offset(ptr noundef %0)
  %68 = tail call ptr @ptvcursor_add(ptr noundef %0, i32 noundef %66, i32 noundef 4, i32 noundef 0)
  %69 = tail call i32 @ptvcursor_current_offset(ptr noundef %0)
  %70 = sub i32 %69, %67
  %71 = and i32 %70, 3
  %.not.i36 = icmp eq i32 %71, 0
  br i1 %.not.i36, label %OUT_RXString.exit37, label %72

72:                                               ; preds = %63
  %73 = sub nuw nsw i32 4, %71
  tail call void @ptvcursor_advance(ptr noundef %0, i32 noundef %73)
  br label %OUT_RXString.exit37

OUT_RXString.exit37:                              ; preds = %63, %72
  %74 = load i32, ptr @hf_afs_prot_oldid, align 4
  %75 = tail call ptr @ptvcursor_add(ptr noundef %0, i32 noundef %74, i32 noundef 4, i32 noundef 0)
  %76 = load i32, ptr @hf_afs_prot_newid, align 4
  %77 = tail call ptr @ptvcursor_add(ptr noundef %0, i32 noundef %76, i32 noundef 4, i32 noundef 0)
  br label %OUT_RXString.exit39

78:                                               ; preds = %3
  %79 = load i32, ptr @hf_afs_prot_id, align 4
  %80 = tail call ptr @ptvcursor_add(ptr noundef %0, i32 noundef %79, i32 noundef 4, i32 noundef 0)
  %81 = load i32, ptr @hf_afs_prot_name_uint_string, align 4
  %82 = tail call i32 @ptvcursor_current_offset(ptr noundef %0)
  %83 = tail call ptr @ptvcursor_add(ptr noundef %0, i32 noundef %81, i32 noundef 4, i32 noundef 0)
  %84 = tail call i32 @ptvcursor_current_offset(ptr noundef %0)
  %85 = sub i32 %84, %82
  %86 = and i32 %85, 3
  %.not.i38 = icmp eq i32 %86, 0
  br i1 %.not.i38, label %OUT_RXString.exit39, label %87

87:                                               ; preds = %78
  %88 = sub nuw nsw i32 4, %86
  tail call void @ptvcursor_advance(ptr noundef %0, i32 noundef %88)
  br label %OUT_RXString.exit39

OUT_RXString.exit39:                              ; preds = %.lr.ph, %.lr.ph43, %36, %28, %87, %78, %OUT_RXString.exit37, %58, %OUT_RXString.exit35, %23, %20, %17, %OUT_RXString.exit, %3
  ret void
}